; Function Attrs: mustprogress uwtable
define void @_ZN6casadi10NlImporter9C_segmentEv(ptr noundef nonnull align 8 dereferenceable(672) %0) local_unnamed_addr #3 align 2 personality ptr @__gxx_personality_v0 {
  %2 = alloca i32, align 4
  %3 = alloca %"class.casadi::MX", align 8
  call void @llvm.lifetime.start.p0(i64 4, ptr nonnull %2)
  %4 = getelementptr inbounds i8, ptr %0, i64 9
  %5 = load i8, ptr %4, align 1
  %6 = and i8 %5, 1
  %.not.i = icmp eq i8 %6, 0
  %7 = getelementptr inbounds i8, ptr %0, i64 16
  br i1 %.not.i, label %10, label %8

8:                                                ; preds = %1
  %9 = call noundef nonnull align 8 dereferenceable(16) ptr @_ZNSi4readEPcl(ptr noundef nonnull align 8 dereferenceable(16) %7, ptr noundef nonnull %2, i64 noundef 4)
  br label %_ZN6casadi10NlImporter8read_intEv.exit

10:                                               ; preds = %1
  %11 = call noundef nonnull align 8 dereferenceable(16) ptr @_ZNSirsERi(ptr noundef nonnull align 8 dereferenceable(16) %7, ptr noundef nonnull align 4 dereferenceable(4) %2)
  br label %_ZN6casadi10NlImporter8read_intEv.exit

_ZN6casadi10NlImporter8read_intEv.exit:           ; preds = %8, %10
  %12 = load i32, ptr %2, align 4
  call void @llvm.lifetime.end.p0(i64 4, ptr nonnull %2)
  call void @_ZN6casadi10NlImporter4exprEv(ptr dead_on_unwind nonnull writable sret(%"class.casadi::MX") align 8 %3, ptr noundef nonnull align 8 dereferenceable(672) %0)
  %13 = load ptr, ptr %0, align 8
  %14 = getelementptr inbounds i8, ptr %13, i64 32
  %15 = sext i32 %12 to i64
  %16 = getelementptr inbounds i8, ptr %13, i64 40
  %17 = load ptr, ptr %16, align 8
  %18 = load ptr, ptr %14, align 8
  %19 = ptrtoint ptr %17 to i64
  %20 = ptrtoint ptr %18 to i64
  %21 = sub i64 %19, %20
  %22 = ashr exact i64 %21, 3
  %.not.i.i = icmp ugt i64 %22, %15
  br i1 %.not.i.i, label %24, label %23

23:                                               ; preds = %_ZN6casadi10NlImporter8read_intEv.exit
  invoke void (ptr, ...) @_ZSt24__throw_out_of_range_fmtPKcz(ptr noundef nonnull @.str.87, i64 noundef %15, i64 noundef %22) #18
          to label %.noexc unwind label %27

.noexc:                                           ; preds = %23
  unreachable

24:                                               ; preds = %_ZN6casadi10NlImporter8read_intEv.exit
  %25 = getelementptr inbounds %"class.casadi::MX", ptr %18, i64 %15
  %26 = invoke noundef nonnull align 8 dereferenceable(8) ptr @_ZN6casadi12SharedObjectaSERKS0_(ptr noundef nonnull align 8 dereferenceable(8) %25, ptr noundef nonnull align 8 dereferenceable(8) %3)
          to label %_ZN6casadi2MXaSERKS0_.exit unwind label %27

_ZN6casadi2MXaSERKS0_.exit:                       ; preds = %24
  call void @_ZN6casadi2MXD1Ev(ptr noundef nonnull align 8 dereferenceable(8) %3) #19
  ret void

27:                                               ; preds = %24, %23
  %28 = landingpad { ptr, i32 }
          cleanup
  call void @_ZN6casadi2MXD1Ev(ptr noundef nonnull align 8 dereferenceable(8) %3) #19
  resume { ptr, i32 } %28
}